target datalayout = "e-m:e-p270:32:32-p271:32:32-p272:64:64-i64:64-i128:128-f80:128-n8:16:32:64-S128"
target triple = "x86_64-pc-linux-gnu"

%struct.CRYPTO_REF_COUNT = type { i32 }
%struct.crypto_ex_data_st = type { ptr, ptr }
%struct.OSSL_TIME = type { i64 }
%struct.srp_ctx_st = type { ptr, ptr, ptr, ptr, ptr, ptr, ptr, ptr, ptr, ptr, ptr, ptr, ptr, ptr, i32, i64 }
%struct.cert_st = type { ptr, ptr, ptr, i32, i32, ptr, i64, ptr, i64, ptr, i64, ptr, i64, ptr, ptr, ptr, ptr, %struct.custom_ext_methods, ptr, i32, ptr, ptr, %struct.CRYPTO_REF_COUNT }
%struct.custom_ext_methods = type { ptr, i64 }
%struct.ssl_ctx_st = type { ptr, ptr, ptr, ptr, ptr, ptr, ptr, i64, ptr, ptr, i32, %struct.OSSL_TIME, ptr, ptr, ptr, %struct.anon.4, %struct.CRYPTO_REF_COUNT, ptr, ptr, ptr, ptr, ptr, ptr, ptr, ptr, ptr, %struct.crypto_ex_data_st, ptr, ptr, ptr, ptr, ptr, ptr, ptr, i64, i32, i32, i32, i64, ptr, ptr, i32, ptr, ptr, i32, i64, [32 x i8], ptr, ptr, ptr, i32, ptr, ptr, ptr, i64, i64, i64, i64, ptr, ptr, ptr, ptr, ptr, %struct.anon.5, ptr, ptr, ptr, ptr, %struct.srp_ctx_st, %struct.dane_ctx_st, ptr, ptr, ptr, ptr, i32, i32, ptr, ptr, i64, i64, ptr, ptr, ptr, i64, ptr, ptr, i32, ptr, ptr, ptr, [14 x i32], [24 x ptr], [14 x ptr], [14 x i64], i64, ptr, ptr, ptr, i64, i64, ptr, i64, i64, i32, i32, i32, i32, ptr, i64, ptr, i64, i64, ptr, ptr }
%struct.anon.4 = type { i32, i32, i32, i32, i32, i32, i32, i32, i32, i32, i32 }
%struct.anon.5 = type { ptr, ptr, [16 x i8], ptr, ptr, ptr, ptr, ptr, i32, i8, i64, ptr, i64, ptr, i64, ptr, i64, ptr, ptr, i64, ptr, ptr, ptr, i64, ptr, ptr, ptr, ptr, [32 x i8] }
%struct.dane_ctx_st = type { ptr, ptr, i8, i64 }

; Function Attrs: nounwind uwtable
define i64 @ssl3_ctx_callback_ctrl(ptr noundef %0, i32 noundef %1, ptr noundef %2) #0 {
  %4 = alloca i64, align 8
  %5 = alloca ptr, align 8
  %6 = alloca i32, align 4
  %7 = alloca ptr, align 8
  store ptr %0, ptr %5, align 8, !tbaa !176
  store i32 %1, ptr %6, align 4, !tbaa !18
  store ptr %2, ptr %7, align 8, !tbaa !3
  %8 = load i32, ptr %6, align 4, !tbaa !18
  switch i32 %8, label %64 [
    i32 6, label %9
    i32 53, label %15
    i32 63, label %20
    i32 72, label %25
    i32 76, label %30
    i32 75, label %40
    i32 77, label %50
    i32 79, label %60
  ]

9:                                                ; preds = %3
  %10 = load ptr, ptr %7, align 8, !tbaa !3
  %11 = load ptr, ptr %5, align 8, !tbaa !176
  %12 = getelementptr inbounds nuw %struct.ssl_ctx_st, ptr %11, i32 0, i32 39
  %13 = load ptr, ptr %12, align 8, !tbaa !177
  %14 = getelementptr inbounds nuw %struct.cert_st, ptr %13, i32 0, i32 2
  store ptr %10, ptr %14, align 8, !tbaa !172
  br label %65

15:                                               ; preds = %3
  %16 = load ptr, ptr %7, align 8, !tbaa !3
  %17 = load ptr, ptr %5, align 8, !tbaa !176
  %18 = getelementptr inbounds nuw %struct.ssl_ctx_st, ptr %17, i32 0, i32 63
  %19 = getelementptr inbounds nuw %struct.anon.5, ptr %18, i32 0, i32 0
  store ptr %16, ptr %19, align 8, !tbaa !208
  br label %65

20:                                               ; preds = %3
  %21 = load ptr, ptr %7, align 8, !tbaa !3
  %22 = load ptr, ptr %5, align 8, !tbaa !176
  %23 = getelementptr inbounds nuw %struct.ssl_ctx_st, ptr %22, i32 0, i32 63
  %24 = getelementptr inbounds nuw %struct.anon.5, ptr %23, i32 0, i32 6
  store ptr %21, ptr %24, align 8, !tbaa !194
  br label %65

25:                                               ; preds = %3
  %26 = load ptr, ptr %7, align 8, !tbaa !3
  %27 = load ptr, ptr %5, align 8, !tbaa !176
  %28 = getelementptr inbounds nuw %struct.ssl_ctx_st, ptr %27, i32 0, i32 63
  %29 = getelementptr inbounds nuw %struct.anon.5, ptr %28, i32 0, i32 4
  store ptr %26, ptr %29, align 8, !tbaa !209
  br label %65

30:                                               ; preds = %3
  %31 = load ptr, ptr %5, align 8, !tbaa !176
  %32 = getelementptr inbounds nuw %struct.ssl_ctx_st, ptr %31, i32 0, i32 68
  %33 = getelementptr inbounds nuw %struct.srp_ctx_st, ptr %32, i32 0, i32 15
  %34 = load i64, ptr %33, align 8, !tbaa !195
  %35 = or i64 %34, 32
  store i64 %35, ptr %33, align 8, !tbaa !195
  %36 = load ptr, ptr %7, align 8, !tbaa !3
  %37 = load ptr, ptr %5, align 8, !tbaa !176
  %38 = getelementptr inbounds nuw %struct.ssl_ctx_st, ptr %37, i32 0, i32 68
  %39 = getelementptr inbounds nuw %struct.srp_ctx_st, ptr %38, i32 0, i32 2
  store ptr %36, ptr %39, align 8, !tbaa !210
  br label %65

40:                                               ; preds = %3
  %41 = load ptr, ptr %5, align 8, !tbaa !176
  %42 = getelementptr inbounds nuw %struct.ssl_ctx_st, ptr %41, i32 0, i32 68
  %43 = getelementptr inbounds nuw %struct.srp_ctx_st, ptr %42, i32 0, i32 15
  %44 = load i64, ptr %43, align 8, !tbaa !195
  %45 = or i64 %44, 32
  store i64 %45, ptr %43, align 8, !tbaa !195
  %46 = load ptr, ptr %7, align 8, !tbaa !3
  %47 = load ptr, ptr %5, align 8, !tbaa !176
  %48 = getelementptr inbounds nuw %struct.ssl_ctx_st, ptr %47, i32 0, i32 68
  %49 = getelementptr inbounds nuw %struct.srp_ctx_st, ptr %48, i32 0, i32 1
  store ptr %46, ptr %49, align 8, !tbaa !211
  br label %65

50:                                               ; preds = %3
  %51 = load ptr, ptr %5, align 8, !tbaa !176
  %52 = getelementptr inbounds nuw %struct.ssl_ctx_st, ptr %51, i32 0, i32 68
  %53 = getelementptr inbounds nuw %struct.srp_ctx_st, ptr %52, i32 0, i32 15
  %54 = load i64, ptr %53, align 8, !tbaa !195
  %55 = or i64 %54, 32
  store i64 %55, ptr %53, align 8, !tbaa !195
  %56 = load ptr, ptr %7, align 8, !tbaa !3
  %57 = load ptr, ptr %5, align 8, !tbaa !176
  %58 = getelementptr inbounds nuw %struct.ssl_ctx_st, ptr %57, i32 0, i32 68
  %59 = getelementptr inbounds nuw %struct.srp_ctx_st, ptr %58, i32 0, i32 3
  store ptr %56, ptr %59, align 8, !tbaa !197
  br label %65

60:                                               ; preds = %3
  %61 = load ptr, ptr %7, align 8, !tbaa !3
  %62 = load ptr, ptr %5, align 8, !tbaa !176
  %63 = getelementptr inbounds nuw %struct.ssl_ctx_st, ptr %62, i32 0, i32 71
  store ptr %61, ptr %63, align 8, !tbaa !212
  br label %65

64:                                               ; preds = %3
  store i64 0, ptr %4, align 8
  br label %66

65:                                               ; preds = %60, %50, %40, %30, %25, %20, %15, %9
  store i64 1, ptr %4, align 8
  br label %66

66:                                               ; preds = %65, %64
  %67 = load i64, ptr %4, align 8
  ret i64 %67
}