; Function Attrs: mustprogress nofree norecurse nosync nounwind willreturn memory(write, argmem: readwrite, inaccessiblemem: none) uwtable
define range(i64 0, 2) i64 @ssl3_ctx_callback_ctrl(ptr noundef captures(none) %0, i32 noundef %1, ptr noundef %2) local_unnamed_addr #10 {
  switch i32 %1, label %31 [
    i32 6, label %4
    i32 53, label %8
    i32 63, label %10
    i32 72, label %12
    i32 76, label %14
    i32 75, label %19
    i32 77, label %24
    i32 79, label %29
  ]

4:                                                ; preds = %3
  %5 = getelementptr inbounds nuw i8, ptr %0, i64 344
  %6 = load ptr, ptr %5, align 8, !tbaa !160
  %7 = getelementptr inbounds nuw i8, ptr %6, i64 16
  store ptr %2, ptr %7, align 8, !tbaa !156
  br label %31

8:                                                ; preds = %3
  %9 = getelementptr inbounds nuw i8, ptr %0, i64 560
  store ptr %2, ptr %9, align 8, !tbaa !192
  br label %31

10:                                               ; preds = %3
  %11 = getelementptr inbounds nuw i8, ptr %0, i64 616
  store ptr %2, ptr %11, align 8, !tbaa !179
  br label %31

12:                                               ; preds = %3
  %13 = getelementptr inbounds nuw i8, ptr %0, i64 600
  store ptr %2, ptr %13, align 8, !tbaa !193
  br label %31

14:                                               ; preds = %3
  %15 = getelementptr inbounds nuw i8, ptr %0, i64 968
  %16 = load i64, ptr %15, align 8, !tbaa !180
  %17 = or i64 %16, 32
  store i64 %17, ptr %15, align 8, !tbaa !180
  %18 = getelementptr inbounds nuw i8, ptr %0, i64 864
  store ptr %2, ptr %18, align 8, !tbaa !194
  br label %31

19:                                               ; preds = %3
  %20 = getelementptr inbounds nuw i8, ptr %0, i64 968
  %21 = load i64, ptr %20, align 8, !tbaa !180
  %22 = or i64 %21, 32
  store i64 %22, ptr %20, align 8, !tbaa !180
  %23 = getelementptr inbounds nuw i8, ptr %0, i64 856
  store ptr %2, ptr %23, align 8, !tbaa !195
  br label %31

24:                                               ; preds = %3
  %25 = getelementptr inbounds nuw i8, ptr %0, i64 968
  %26 = load i64, ptr %25, align 8, !tbaa !180
  %27 = or i64 %26, 32
  store i64 %27, ptr %25, align 8, !tbaa !180
  %28 = getelementptr inbounds nuw i8, ptr %0, i64 872
  store ptr %2, ptr %28, align 8, !tbaa !182
  br label %31

29:                                               ; preds = %3
  %30 = getelementptr inbounds nuw i8, ptr %0, i64 1016
  store ptr %2, ptr %30, align 8, !tbaa !196
  br label %31

31:                                               ; preds = %4, %8, %10, %12, %14, %19, %24, %29, %3
  %.0 = phi i64 [ 0, %3 ], [ 1, %29 ], [ 1, %24 ], [ 1, %19 ], [ 1, %14 ], [ 1, %12 ], [ 1, %10 ], [ 1, %8 ], [ 1, %4 ]
  ret i64 %.0
}